target datalayout = "e-m:e-p270:32:32-p271:32:32-p272:64:64-i64:64-i128:128-f80:128-n8:16:32:64-S128"
target triple = "x86_64-pc-linux-gnu"

%struct.wl_callback_listener = type { ptr }
%struct.wl_interface = type { ptr, i32, i32, ptr, i32, ptr }
%struct.SDL_WaylandSeat = type { ptr, ptr, ptr, ptr, ptr, %struct.wl_list, i32, i32, %struct.anon.1, %struct.anon.3, %struct.anon.6, %struct.anon.7, %struct.anon.8 }
%struct.wl_list = type { ptr, ptr }
%struct.anon.1 = type { ptr, ptr, ptr, ptr, ptr, %struct.SDL_WaylandKeyboardRepeat, i64, i16, i16, i32, i8, %struct.anon.2 }
%struct.SDL_WaylandKeyboardRepeat = type { i32, i32, i32, i8, i8, i32, i64, i64, i64, i32, [8 x i8] }
%struct.anon.2 = type { ptr, ptr, ptr, ptr, i32, i32, i32, i32, i32, i32, i32, i32, i32, i32, i32 }
%struct.anon.3 = type { ptr, ptr, ptr, ptr, ptr, ptr, ptr, ptr, i64, i32, i32, %struct.SDL_Point, i32, %struct.anon.4, %struct.anon.5 }
%struct.SDL_Point = type { i32, i32 }
%struct.anon.4 = type { i32, float, i32, float, i64, i32 }
%struct.anon.5 = type { ptr, ptr, ptr, i64, i64, i32 }
%struct.anon.6 = type { ptr, ptr, i64, %struct.wl_list }
%struct.anon.7 = type { ptr, %struct.SDL_Rect, i8, i8 }
%struct.SDL_Rect = type { i32, i32, i32, i32 }
%struct.anon.8 = type { ptr, %struct.wl_list }
%struct.SDL_CursorData = type { %union.anon.21, i8 }
%union.anon.21 = type { %struct.Wayland_CustomCursor }
%struct.Wayland_CustomCursor = type { ptr, i32, i32, %struct.wl_list }
%struct.Wayland_SystemCursor = type { ptr, i64, i32, i32 }
%struct.Wayland_SystemCursorFrame = type { ptr, i64 }

@cursor_frame_listener = hidden global %struct.wl_callback_listener { ptr @cursor_frame_done }, align 8
@WAYLAND_wl_proxy_destroy = external global ptr, align 8
@WAYLAND_wl_proxy_marshal_flags = external global ptr, align 8
@wl_callback_interface = external constant %struct.wl_interface, align 8
@WAYLAND_wl_proxy_get_version = external global ptr, align 8
@WAYLAND_wl_proxy_add_listener = external global ptr, align 8

; Function Attrs: inlinehint nounwind uwtable
define internal void @wl_surface_commit(ptr noundef %0) #3 {
  %2 = alloca ptr, align 8
  store ptr %0, ptr %2, align 8
  %3 = load ptr, ptr @WAYLAND_wl_proxy_marshal_flags, align 8
  %4 = load ptr, ptr %2, align 8
  %5 = load ptr, ptr @WAYLAND_wl_proxy_get_version, align 8
  %6 = load ptr, ptr %2, align 8
  %7 = call i32 %5(ptr noundef %6)
  %8 = call ptr (ptr, i32, ptr, i32, i32, ...) %3(ptr noundef %4, i32 noundef 6, ptr noundef null, i32 noundef %7, i32 noundef 0)
  ret void
}

; Function Attrs: inlinehint nounwind uwtable
define internal void @wl_surface_damage(ptr noundef %0, i32 noundef %1, i32 noundef %2, i32 noundef %3, i32 noundef %4) #3 {
  %6 = alloca ptr, align 8
  %7 = alloca i32, align 4
  %8 = alloca i32, align 4
  %9 = alloca i32, align 4
  %10 = alloca i32, align 4
  store ptr %0, ptr %6, align 8
  store i32 %1, ptr %7, align 4
  store i32 %2, ptr %8, align 4
  store i32 %3, ptr %9, align 4
  store i32 %4, ptr %10, align 4
  %11 = load ptr, ptr @WAYLAND_wl_proxy_marshal_flags, align 8
  %12 = load ptr, ptr %6, align 8
  %13 = load ptr, ptr @WAYLAND_wl_proxy_get_version, align 8
  %14 = load ptr, ptr %6, align 8
  %15 = call i32 %13(ptr noundef %14)
  %16 = load i32, ptr %7, align 4
  %17 = load i32, ptr %8, align 4
  %18 = load i32, ptr %9, align 4
  %19 = load i32, ptr %10, align 4
  %20 = call ptr (ptr, i32, ptr, i32, i32, ...) %11(ptr noundef %12, i32 noundef 2, ptr noundef null, i32 noundef %15, i32 noundef 0, i32 noundef %16, i32 noundef %17, i32 noundef %18, i32 noundef %19)
  ret void
}

; Function Attrs: inlinehint nounwind uwtable
define internal void @wl_surface_damage_buffer(ptr noundef %0, i32 noundef %1, i32 noundef %2, i32 noundef %3, i32 noundef %4) #3 {
  %6 = alloca ptr, align 8
  %7 = alloca i32, align 4
  %8 = alloca i32, align 4
  %9 = alloca i32, align 4
  %10 = alloca i32, align 4
  store ptr %0, ptr %6, align 8
  store i32 %1, ptr %7, align 4
  store i32 %2, ptr %8, align 4
  store i32 %3, ptr %9, align 4
  store i32 %4, ptr %10, align 4
  %11 = load ptr, ptr @WAYLAND_wl_proxy_marshal_flags, align 8
  %12 = load ptr, ptr %6, align 8
  %13 = load ptr, ptr @WAYLAND_wl_proxy_get_version, align 8
  %14 = load ptr, ptr %6, align 8
  %15 = call i32 %13(ptr noundef %14)
  %16 = load i32, ptr %7, align 4
  %17 = load i32, ptr %8, align 4
  %18 = load i32, ptr %9, align 4
  %19 = load i32, ptr %10, align 4
  %20 = call ptr (ptr, i32, ptr, i32, i32, ...) %11(ptr noundef %12, i32 noundef 9, ptr noundef null, i32 noundef %15, i32 noundef 0, i32 noundef %16, i32 noundef %17, i32 noundef %18, i32 noundef %19)
  ret void
}

; Function Attrs: inlinehint nounwind uwtable
define internal i32 @wl_surface_get_version(ptr noundef %0) #3 {
  %2 = alloca ptr, align 8
  store ptr %0, ptr %2, align 8
  %3 = load ptr, ptr @WAYLAND_wl_proxy_get_version, align 8
  %4 = load ptr, ptr %2, align 8
  %5 = call i32 %3(ptr noundef %4)
  ret i32 %5
}

; Function Attrs: inlinehint nounwind uwtable
define internal void @wl_surface_attach(ptr noundef %0, ptr noundef %1, i32 noundef %2, i32 noundef %3) #3 {
  %5 = alloca ptr, align 8
  %6 = alloca ptr, align 8
  %7 = alloca i32, align 4
  %8 = alloca i32, align 4
  store ptr %0, ptr %5, align 8
  store ptr %1, ptr %6, align 8
  store i32 %2, ptr %7, align 4
  store i32 %3, ptr %8, align 4
  %9 = load ptr, ptr @WAYLAND_wl_proxy_marshal_flags, align 8
  %10 = load ptr, ptr %5, align 8
  %11 = load ptr, ptr @WAYLAND_wl_proxy_get_version, align 8
  %12 = load ptr, ptr %5, align 8
  %13 = call i32 %11(ptr noundef %12)
  %14 = load ptr, ptr %6, align 8
  %15 = load i32, ptr %7, align 4
  %16 = load i32, ptr %8, align 4
  %17 = call ptr (ptr, i32, ptr, i32, i32, ...) %9(ptr noundef %10, i32 noundef 1, ptr noundef null, i32 noundef %13, i32 noundef 0, ptr noundef %14, i32 noundef %15, i32 noundef %16)
  ret void
}

; Function Attrs: inlinehint nounwind uwtable
define internal i32 @wl_callback_add_listener(ptr noundef %0, ptr noundef %1, ptr noundef %2) #3 {
  %4 = alloca ptr, align 8
  %5 = alloca ptr, align 8
  %6 = alloca ptr, align 8
  store ptr %0, ptr %4, align 8
  store ptr %1, ptr %5, align 8
  store ptr %2, ptr %6, align 8
  %7 = load ptr, ptr @WAYLAND_wl_proxy_add_listener, align 8
  %8 = load ptr, ptr %4, align 8
  %9 = load ptr, ptr %5, align 8
  %10 = load ptr, ptr %6, align 8
  %11 = call i32 %7(ptr noundef %8, ptr noundef %9, ptr noundef %10)
  ret i32 %11
}

; Function Attrs: inlinehint nounwind uwtable
define internal ptr @wl_surface_frame(ptr noundef %0) #3 {
  %2 = alloca ptr, align 8
  %3 = alloca ptr, align 8
  store ptr %0, ptr %2, align 8
  call void @llvm.lifetime.start.p0(i64 8, ptr %3) #7
  %4 = load ptr, ptr @WAYLAND_wl_proxy_marshal_flags, align 8
  %5 = load ptr, ptr %2, align 8
  %6 = load ptr, ptr @WAYLAND_wl_proxy_get_version, align 8
  %7 = load ptr, ptr %2, align 8
  %8 = call i32 %6(ptr noundef %7)
  %9 = call ptr (ptr, i32, ptr, i32, i32, ...) %4(ptr noundef %5, i32 noundef 3, ptr noundef @wl_callback_interface, i32 noundef %8, i32 noundef 0, ptr noundef null)
  store ptr %9, ptr %3, align 8
  %10 = load ptr, ptr %3, align 8
  call void @llvm.lifetime.end.p0(i64 8, ptr %3) #7
  ret ptr %10
}

; Function Attrs: inlinehint nounwind uwtable
define internal void @wl_callback_destroy(ptr noundef %0) #3 {
  %2 = alloca ptr, align 8
  store ptr %0, ptr %2, align 8
  %3 = load ptr, ptr @WAYLAND_wl_proxy_destroy, align 8
  %4 = load ptr, ptr %2, align 8
  call void %3(ptr noundef %4)
  ret void
}

; Function Attrs: nounwind uwtable
define internal void @cursor_frame_done(ptr noundef %0, ptr noundef %1, i32 noundef %2) #0 {
  %4 = alloca ptr, align 8
  %5 = alloca ptr, align 8
  %6 = alloca i32, align 4
  %7 = alloca ptr, align 8
  %8 = alloca ptr, align 8
  %9 = alloca i64, align 8
  %10 = alloca i64, align 8
  %11 = alloca i64, align 8
  %12 = alloca i32, align 4
  %13 = alloca i64, align 8
  %14 = alloca i32, align 4
  store ptr %0, ptr %4, align 8
  store ptr %1, ptr %5, align 8
  store i32 %2, ptr %6, align 4
  call void @llvm.lifetime.start.p0(i64 8, ptr %7) #7
  %15 = load ptr, ptr %4, align 8
  store ptr %15, ptr %7, align 8
  call void @llvm.lifetime.start.p0(i64 8, ptr %8) #7
  %16 = load ptr, ptr %7, align 8
  %17 = getelementptr inbounds nuw %struct.SDL_WaylandSeat, ptr %16, i32 0, i32 9
  %18 = getelementptr inbounds nuw %struct.anon.3, ptr %17, i32 0, i32 7
  %19 = load ptr, ptr %18, align 8
  store ptr %19, ptr %8, align 8
  call void @llvm.lifetime.start.p0(i64 8, ptr %9) #7
  %20 = call i64 @SDL_GetTicksNS_REAL()
  store i64 %20, ptr %9, align 8
  call void @llvm.lifetime.start.p0(i64 8, ptr %10) #7
  %21 = load i64, ptr %9, align 8
  %22 = load ptr, ptr %7, align 8
  %23 = getelementptr inbounds nuw %struct.SDL_WaylandSeat, ptr %22, i32 0, i32 9
  %24 = getelementptr inbounds nuw %struct.anon.3, ptr %23, i32 0, i32 14
  %25 = getelementptr inbounds nuw %struct.anon.5, ptr %24, i32 0, i32 3
  %26 = load i64, ptr %25, align 8
  %27 = sub i64 %21, %26
  %28 = load ptr, ptr %8, align 8
  %29 = getelementptr inbounds nuw %struct.SDL_CursorData, ptr %28, i32 0, i32 0
  %30 = getelementptr inbounds nuw %struct.Wayland_SystemCursor, ptr %29, i32 0, i32 1
  %31 = load i64, ptr %30, align 8
  %32 = urem i64 %27, %31
  store i64 %32, ptr %10, align 8
  call void @llvm.lifetime.start.p0(i64 8, ptr %11) #7
  store i64 0, ptr %11, align 8
  call void @llvm.lifetime.start.p0(i64 4, ptr %12) #7
  %33 = load ptr, ptr %7, align 8
  %34 = getelementptr inbounds nuw %struct.SDL_WaylandSeat, ptr %33, i32 0, i32 9
  %35 = getelementptr inbounds nuw %struct.anon.3, ptr %34, i32 0, i32 14
  %36 = getelementptr inbounds nuw %struct.anon.5, ptr %35, i32 0, i32 5
  %37 = load i32, ptr %36, align 8
  store i32 %37, ptr %12, align 4
  %38 = load ptr, ptr %5, align 8
  call void @wl_callback_destroy(ptr noundef %38)
  %39 = load ptr, ptr %7, align 8
  %40 = getelementptr inbounds nuw %struct.SDL_WaylandSeat, ptr %39, i32 0, i32 9
  %41 = getelementptr inbounds nuw %struct.anon.3, ptr %40, i32 0, i32 14
  %42 = getelementptr inbounds nuw %struct.anon.5, ptr %41, i32 0, i32 0
  %43 = load ptr, ptr %42, align 8
  %44 = call ptr @wl_surface_frame(ptr noundef %43)
  %45 = load ptr, ptr %7, align 8
  %46 = getelementptr inbounds nuw %struct.SDL_WaylandSeat, ptr %45, i32 0, i32 9
  %47 = getelementptr inbounds nuw %struct.anon.3, ptr %46, i32 0, i32 14
  %48 = getelementptr inbounds nuw %struct.anon.5, ptr %47, i32 0, i32 2
  store ptr %44, ptr %48, align 8
  %49 = load ptr, ptr %7, align 8
  %50 = getelementptr inbounds nuw %struct.SDL_WaylandSeat, ptr %49, i32 0, i32 9
  %51 = getelementptr inbounds nuw %struct.anon.3, ptr %50, i32 0, i32 14
  %52 = getelementptr inbounds nuw %struct.anon.5, ptr %51, i32 0, i32 2
  %53 = load ptr, ptr %52, align 8
  %54 = load ptr, ptr %4, align 8
  %55 = call i32 @wl_callback_add_listener(ptr noundef %53, ptr noundef @cursor_frame_listener, ptr noundef %54)
  %56 = load i64, ptr %10, align 8
  %57 = load ptr, ptr %7, align 8
  %58 = getelementptr inbounds nuw %struct.SDL_WaylandSeat, ptr %57, i32 0, i32 9
  %59 = getelementptr inbounds nuw %struct.anon.3, ptr %58, i32 0, i32 14
  %60 = getelementptr inbounds nuw %struct.anon.5, ptr %59, i32 0, i32 4
  %61 = load i64, ptr %60, align 8
  %62 = add i64 %61, %56
  store i64 %62, ptr %60, align 8
  call void @llvm.lifetime.start.p0(i64 8, ptr %13) #7
  %63 = load ptr, ptr %8, align 8
  %64 = getelementptr inbounds nuw %struct.SDL_CursorData, ptr %63, i32 0, i32 0
  %65 = getelementptr inbounds nuw %struct.Wayland_SystemCursor, ptr %64, i32 0, i32 0
  %66 = load ptr, ptr %65, align 8
  %67 = load i32, ptr %12, align 4
  %68 = sext i32 %67 to i64
  %69 = getelementptr inbounds %struct.Wayland_SystemCursorFrame, ptr %66, i64 %68
  %70 = getelementptr inbounds nuw %struct.Wayland_SystemCursorFrame, ptr %69, i32 0, i32 1
  %71 = load i64, ptr %70, align 8
  store i64 %71, ptr %13, align 8
  br label %72

72:                                               ; preds = %102, %3
  %73 = load i64, ptr %13, align 8
  %74 = load ptr, ptr %7, align 8
  %75 = getelementptr inbounds nuw %struct.SDL_WaylandSeat, ptr %74, i32 0, i32 9
  %76 = getelementptr inbounds nuw %struct.anon.3, ptr %75, i32 0, i32 14
  %77 = getelementptr inbounds nuw %struct.anon.5, ptr %76, i32 0, i32 4
  %78 = load i64, ptr %77, align 8
  %79 = icmp ule i64 %73, %78
  br i1 %79, label %81, label %80

80:                                               ; preds = %72
  store i32 2, ptr %14, align 4
  br label %114

81:                                               ; preds = %72
  %82 = load i32, ptr %12, align 4
  %83 = add nsw i32 %82, 1
  %84 = load ptr, ptr %8, align 8
  %85 = getelementptr inbounds nuw %struct.SDL_CursorData, ptr %84, i32 0, i32 0
  %86 = getelementptr inbounds nuw %struct.Wayland_SystemCursor, ptr %85, i32 0, i32 2
  %87 = load i32, ptr %86, align 8
  %88 = srem i32 %83, %87
  store i32 %88, ptr %12, align 4
  %89 = load i64, ptr %13, align 8
  store i64 %89, ptr %11, align 8
  %90 = load ptr, ptr %8, align 8
  %91 = getelementptr inbounds nuw %struct.SDL_CursorData, ptr %90, i32 0, i32 0
  %92 = getelementptr inbounds nuw %struct.Wayland_SystemCursor, ptr %91, i32 0, i32 0
  %93 = load ptr, ptr %92, align 8
  %94 = load i32, ptr %12, align 4
  %95 = sext i32 %94 to i64
  %96 = getelementptr inbounds %struct.Wayland_SystemCursorFrame, ptr %93, i64 %95
  %97 = getelementptr inbounds nuw %struct.Wayland_SystemCursorFrame, ptr %96, i32 0, i32 1
  %98 = load i64, ptr %97, align 8
  %99 = icmp ne i64 %98, 0
  br i1 %99, label %101, label %100

100:                                              ; preds = %81
  store i32 2, ptr %14, align 4
  br label %114

101:                                              ; preds = %81
  br label %102

102:                                              ; preds = %101
  %103 = load ptr, ptr %8, align 8
  %104 = getelementptr inbounds nuw %struct.SDL_CursorData, ptr %103, i32 0, i32 0
  %105 = getelementptr inbounds nuw %struct.Wayland_SystemCursor, ptr %104, i32 0, i32 0
  %106 = load ptr, ptr %105, align 8
  %107 = load i32, ptr %12, align 4
  %108 = sext i32 %107 to i64
  %109 = getelementptr inbounds %struct.Wayland_SystemCursorFrame, ptr %106, i64 %108
  %110 = getelementptr inbounds nuw %struct.Wayland_SystemCursorFrame, ptr %109, i32 0, i32 1
  %111 = load i64, ptr %110, align 8
  %112 = load i64, ptr %13, align 8
  %113 = add i64 %112, %111
  store i64 %113, ptr %13, align 8
  br label %72, !llvm.loop !3

114:                                              ; preds = %100, %80
  call void @llvm.lifetime.end.p0(i64 8, ptr %13) #7
  br label %115

115:                                              ; preds = %114
  %116 = load i64, ptr %11, align 8
  %117 = load ptr, ptr %7, align 8
  %118 = getelementptr inbounds nuw %struct.SDL_WaylandSeat, ptr %117, i32 0, i32 9
  %119 = getelementptr inbounds nuw %struct.anon.3, ptr %118, i32 0, i32 14
  %120 = getelementptr inbounds nuw %struct.anon.5, ptr %119, i32 0, i32 4
  %121 = load i64, ptr %120, align 8
  %122 = sub i64 %121, %116
  store i64 %122, ptr %120, align 8
  %123 = load i64, ptr %9, align 8
  %124 = load ptr, ptr %7, align 8
  %125 = getelementptr inbounds nuw %struct.SDL_WaylandSeat, ptr %124, i32 0, i32 9
  %126 = getelementptr inbounds nuw %struct.anon.3, ptr %125, i32 0, i32 14
  %127 = getelementptr inbounds nuw %struct.anon.5, ptr %126, i32 0, i32 3
  store i64 %123, ptr %127, align 8
  %128 = load i32, ptr %12, align 4
  %129 = load ptr, ptr %7, align 8
  %130 = getelementptr inbounds nuw %struct.SDL_WaylandSeat, ptr %129, i32 0, i32 9
  %131 = getelementptr inbounds nuw %struct.anon.3, ptr %130, i32 0, i32 14
  %132 = getelementptr inbounds nuw %struct.anon.5, ptr %131, i32 0, i32 5
  store i32 %128, ptr %132, align 8
  %133 = load ptr, ptr %7, align 8
  %134 = getelementptr inbounds nuw %struct.SDL_WaylandSeat, ptr %133, i32 0, i32 9
  %135 = getelementptr inbounds nuw %struct.anon.3, ptr %134, i32 0, i32 14
  %136 = getelementptr inbounds nuw %struct.anon.5, ptr %135, i32 0, i32 0
  %137 = load ptr, ptr %136, align 8
  %138 = load ptr, ptr %8, align 8
  %139 = getelementptr inbounds nuw %struct.SDL_CursorData, ptr %138, i32 0, i32 0
  %140 = getelementptr inbounds nuw %struct.Wayland_SystemCursor, ptr %139, i32 0, i32 0
  %141 = load ptr, ptr %140, align 8
  %142 = load i32, ptr %12, align 4
  %143 = sext i32 %142 to i64
  %144 = getelementptr inbounds %struct.Wayland_SystemCursorFrame, ptr %141, i64 %143
  %145 = getelementptr inbounds nuw %struct.Wayland_SystemCursorFrame, ptr %144, i32 0, i32 0
  %146 = load ptr, ptr %145, align 8
  call void @wl_surface_attach(ptr noundef %137, ptr noundef %146, i32 noundef 0, i32 noundef 0)
  %147 = load ptr, ptr %7, align 8
  %148 = getelementptr inbounds nuw %struct.SDL_WaylandSeat, ptr %147, i32 0, i32 9
  %149 = getelementptr inbounds nuw %struct.anon.3, ptr %148, i32 0, i32 14
  %150 = getelementptr inbounds nuw %struct.anon.5, ptr %149, i32 0, i32 0
  %151 = load ptr, ptr %150, align 8
  %152 = call i32 @wl_surface_get_version(ptr noundef %151)
  %153 = icmp uge i32 %152, 4
  br i1 %153, label %154, label %160

154:                                              ; preds = %115
  %155 = load ptr, ptr %7, align 8
  %156 = getelementptr inbounds nuw %struct.SDL_WaylandSeat, ptr %155, i32 0, i32 9
  %157 = getelementptr inbounds nuw %struct.anon.3, ptr %156, i32 0, i32 14
  %158 = getelementptr inbounds nuw %struct.anon.5, ptr %157, i32 0, i32 0
  %159 = load ptr, ptr %158, align 8
  call void @wl_surface_damage_buffer(ptr noundef %159, i32 noundef 0, i32 noundef 0, i32 noundef 2147483647, i32 noundef 2147483647)
  br label %166

160:                                              ; preds = %115
  %161 = load ptr, ptr %7, align 8
  %162 = getelementptr inbounds nuw %struct.SDL_WaylandSeat, ptr %161, i32 0, i32 9
  %163 = getelementptr inbounds nuw %struct.anon.3, ptr %162, i32 0, i32 14
  %164 = getelementptr inbounds nuw %struct.anon.5, ptr %163, i32 0, i32 0
  %165 = load ptr, ptr %164, align 8
  call void @wl_surface_damage(ptr noundef %165, i32 noundef 0, i32 noundef 0, i32 noundef 2147483647, i32 noundef 2147483647)
  br label %166

166:                                              ; preds = %160, %154
  %167 = load ptr, ptr %7, align 8
  %168 = getelementptr inbounds nuw %struct.SDL_WaylandSeat, ptr %167, i32 0, i32 9
  %169 = getelementptr inbounds nuw %struct.anon.3, ptr %168, i32 0, i32 14
  %170 = getelementptr inbounds nuw %struct.anon.5, ptr %169, i32 0, i32 0
  %171 = load ptr, ptr %170, align 8
  call void @wl_surface_commit(ptr noundef %171)
  call void @llvm.lifetime.end.p0(i64 4, ptr %12) #7
  call void @llvm.lifetime.end.p0(i64 8, ptr %11) #7
  call void @llvm.lifetime.end.p0(i64 8, ptr %10) #7
  call void @llvm.lifetime.end.p0(i64 8, ptr %9) #7
  call void @llvm.lifetime.end.p0(i64 8, ptr %8) #7
  call void @llvm.lifetime.end.p0(i64 8, ptr %7) #7
  ret void
}