; Function Attrs: nounwind uwtable
define internal void @cursor_frame_done(ptr noundef initializes((416, 424)) %0, ptr noundef %1, i32 %2) #0 {
  %4 = getelementptr inbounds nuw i8, ptr %0, i64 328
  %5 = load ptr, ptr %4, align 8
  %6 = tail call i64 @SDL_GetTicksNS_REAL() #6
  %7 = getelementptr inbounds nuw i8, ptr %0, i64 400
  %8 = getelementptr inbounds nuw i8, ptr %0, i64 424
  %9 = load i64, ptr %8, align 8
  %10 = sub i64 %6, %9
  %11 = getelementptr inbounds nuw i8, ptr %5, i64 8
  %12 = load i64, ptr %11, align 8
  %13 = urem i64 %10, %12
  %14 = getelementptr inbounds nuw i8, ptr %0, i64 440
  %15 = load i32, ptr %14, align 8
  %16 = load ptr, ptr @WAYLAND_wl_proxy_destroy, align 8
  tail call void %16(ptr noundef %1) #6
  %17 = load ptr, ptr %7, align 8
  %18 = load ptr, ptr @WAYLAND_wl_proxy_marshal_flags, align 8
  %19 = load ptr, ptr @WAYLAND_wl_proxy_get_version, align 8
  %20 = tail call i32 %19(ptr noundef %17) #6
  %21 = tail call ptr (ptr, i32, ptr, i32, i32, ...) %18(ptr noundef %17, i32 noundef 3, ptr noundef nonnull @wl_callback_interface, i32 noundef %20, i32 noundef 0, ptr noundef null) #6
  %22 = getelementptr inbounds nuw i8, ptr %0, i64 416
  store ptr %21, ptr %22, align 8
  %23 = load ptr, ptr @WAYLAND_wl_proxy_add_listener, align 8
  %24 = tail call i32 %23(ptr noundef %21, ptr noundef nonnull @cursor_frame_listener, ptr noundef %0) #6
  %25 = getelementptr inbounds nuw i8, ptr %0, i64 432
  %26 = load i64, ptr %25, align 8
  %27 = add i64 %26, %13
  store i64 %27, ptr %25, align 8
  %28 = load ptr, ptr %5, align 8
  %29 = sext i32 %15 to i64
  %30 = getelementptr inbounds %struct.Wayland_SystemCursorFrame, ptr %28, i64 %29, i32 1
  %31 = load i64, ptr %30, align 8
  %.not42 = icmp ugt i64 %31, %27
  br i1 %.not42, label %._crit_edge, label %.lr.ph

.lr.ph:                                           ; preds = %3
  %32 = getelementptr inbounds nuw i8, ptr %5, i64 16
  %33 = load i32, ptr %32, align 8
  br label %34

34:                                               ; preds = %34, %.lr.ph
  %.044 = phi i64 [ %31, %.lr.ph ], [ %40, %34 ]
  %.03743 = phi i32 [ %15, %.lr.ph ], [ %36, %34 ]
  %35 = add nsw i32 %.03743, 1
  %36 = srem i32 %35, %33
  %37 = sext i32 %36 to i64
  %38 = getelementptr inbounds %struct.Wayland_SystemCursorFrame, ptr %28, i64 %37, i32 1
  %39 = load i64, ptr %38, align 8
  %.not41 = icmp eq i64 %39, 0
  %40 = add i64 %39, %.044
  %.not = icmp ugt i64 %40, %27
  %or.cond = select i1 %.not41, i1 true, i1 %.not
  br i1 %or.cond, label %._crit_edge, label %34, !llvm.loop !3

._crit_edge:                                      ; preds = %34, %3
  %.pre-phi = phi i64 [ %29, %3 ], [ %37, %34 ]
  %.139 = phi i64 [ 0, %3 ], [ %.044, %34 ]
  %.1 = phi i32 [ %15, %3 ], [ %36, %34 ]
  %41 = sub i64 %27, %.139
  store i64 %41, ptr %25, align 8
  store i64 %6, ptr %8, align 8
  store i32 %.1, ptr %14, align 8
  %42 = load ptr, ptr %7, align 8
  %43 = load ptr, ptr %5, align 8
  %44 = getelementptr inbounds %struct.Wayland_SystemCursorFrame, ptr %43, i64 %.pre-phi
  %45 = load ptr, ptr %44, align 8
  %46 = load ptr, ptr @WAYLAND_wl_proxy_marshal_flags, align 8
  %47 = load ptr, ptr @WAYLAND_wl_proxy_get_version, align 8
  %48 = tail call i32 %47(ptr noundef %42) #6
  %49 = tail call ptr (ptr, i32, ptr, i32, i32, ...) %46(ptr noundef %42, i32 noundef 1, ptr noundef null, i32 noundef %48, i32 noundef 0, ptr noundef %45, i32 noundef 0, i32 noundef 0) #6
  %50 = load ptr, ptr %7, align 8
  %51 = load ptr, ptr @WAYLAND_wl_proxy_get_version, align 8
  %52 = tail call i32 %51(ptr noundef %50) #6
  %53 = icmp ugt i32 %52, 3
  %54 = load ptr, ptr %7, align 8
  %55 = load ptr, ptr @WAYLAND_wl_proxy_marshal_flags, align 8
  %56 = load ptr, ptr @WAYLAND_wl_proxy_get_version, align 8
  %57 = tail call i32 %56(ptr noundef %54) #6
  %. = select i1 %53, i32 9, i32 2
  %58 = tail call ptr (ptr, i32, ptr, i32, i32, ...) %55(ptr noundef %54, i32 noundef %., ptr noundef null, i32 noundef %57, i32 noundef 0, i32 noundef 0, i32 noundef 0, i32 noundef 2147483647, i32 noundef 2147483647) #6
  %59 = load ptr, ptr %7, align 8
  %60 = load ptr, ptr @WAYLAND_wl_proxy_marshal_flags, align 8
  %61 = load ptr, ptr @WAYLAND_wl_proxy_get_version, align 8
  %62 = tail call i32 %61(ptr noundef %59) #6
  %63 = tail call ptr (ptr, i32, ptr, i32, i32, ...) %60(ptr noundef %59, i32 noundef 6, ptr noundef null, i32 noundef %62, i32 noundef 0) #6
  ret void
}